; Function Attrs: mustprogress nofree norecurse nosync nounwind willreturn memory(readwrite, inaccessiblemem: none) uwtable
define hidden void @_ZN7nmethod16copy_scopes_dataEPhi(ptr nocapture noundef nonnull readonly align 8 dereferenceable(214) %0, ptr nocapture noundef readonly %1, i32 noundef %2) local_unnamed_addr #12 align 2 {
  %4 = getelementptr inbounds i8, ptr %0, i64 88
  %5 = load ptr, ptr %4, align 8
  %6 = getelementptr inbounds i8, ptr %0, i64 192
  %7 = load i32, ptr %6, align 8
  %8 = sext i32 %7 to i64
  %9 = getelementptr inbounds i8, ptr %5, i64 %8
  %10 = sext i32 %2 to i64
  tail call void @llvm.memcpy.p0.p0.i64(ptr align 1 %9, ptr align 1 %1, i64 %10, i1 false)
  ret void
}